target datalayout = "e-m:e-p270:32:32-p271:32:32-p272:64:64-i64:64-i128:128-f80:128-n8:16:32:64-S128"
target triple = "x86_64-pc-linux-gnu"

%"class.net::QuicData" = type <{ ptr, ptr, i64, i8, [7 x i8] }>
%"class.net::QuicPacket" = type { %"class.net::QuicData.base", ptr, i32, i8, i8, i8, i8 }
%"class.net::QuicData.base" = type <{ ptr, ptr, i64, i8 }>

@_ZTVN3net8QuicDataE = unnamed_addr constant { [4 x ptr] } { [4 x ptr] [ptr null, ptr @_ZTIN3net8QuicDataE, ptr @_ZN3net8QuicDataD1Ev, ptr @_ZN3net8QuicDataD0Ev] }, align 8
@_ZTVN3net10QuicPacketE = linkonce_odr unnamed_addr constant { [4 x ptr] } { [4 x ptr] [ptr null, ptr @_ZTIN3net10QuicPacketE, ptr @_ZN3net8QuicDataD2Ev, ptr @_ZN3net10QuicPacketD0Ev] }, comdat, align 8

; Function Attrs: mustprogress nounwind uwtable
define void @_ZN3net8QuicDataC2EPKcmb(ptr noundef nonnull align 8 dereferenceable(25) %0, ptr noundef %1, i64 noundef %2, i1 noundef zeroext %3) unnamed_addr #1 align 2 {
  %5 = alloca ptr, align 8
  %6 = alloca ptr, align 8
  %7 = alloca i64, align 8
  %8 = alloca i8, align 1
  store ptr %0, ptr %5, align 8, !tbaa !257
  store ptr %1, ptr %6, align 8, !tbaa !66
  store i64 %2, ptr %7, align 8, !tbaa !71
  %9 = zext i1 %3 to i8
  store i8 %9, ptr %8, align 1, !tbaa !29
  %10 = load ptr, ptr %5, align 8
  store ptr getelementptr inbounds inrange(-16, 16) ({ [4 x ptr] }, ptr @_ZTVN3net8QuicDataE, i32 0, i32 0, i32 2), ptr %10, align 8, !tbaa !69
  %11 = getelementptr inbounds nuw %"class.net::QuicData", ptr %10, i32 0, i32 1
  %12 = load ptr, ptr %6, align 8, !tbaa !66
  store ptr %12, ptr %11, align 8, !tbaa !259
  %13 = getelementptr inbounds nuw %"class.net::QuicData", ptr %10, i32 0, i32 2
  %14 = load i64, ptr %7, align 8, !tbaa !71
  store i64 %14, ptr %13, align 8, !tbaa !261
  %15 = getelementptr inbounds nuw %"class.net::QuicData", ptr %10, i32 0, i32 3
  %16 = load i8, ptr %8, align 1, !tbaa !29, !range !23, !noundef !24
  %17 = trunc i8 %16 to i1
  %18 = zext i1 %17 to i8
  store i8 %18, ptr %15, align 8, !tbaa !262
  ret void
}

; Function Attrs: mustprogress nounwind uwtable
define void @_ZN3net10QuicPacketC2EPcmbNS_22QuicConnectionIdLengthEbbbNS_22QuicPacketNumberLengthE(ptr noundef nonnull align 8 dereferenceable(48) %0, ptr noundef %1, i64 noundef %2, i1 noundef zeroext %3, i32 noundef %4, i1 noundef zeroext %5, i1 noundef zeroext %6, i1 noundef zeroext %7, i8 noundef signext %8) unnamed_addr #1 align 2 {
  %10 = alloca ptr, align 8
  %11 = alloca ptr, align 8
  %12 = alloca i64, align 8
  %13 = alloca i8, align 1
  %14 = alloca i32, align 4
  %15 = alloca i8, align 1
  %16 = alloca i8, align 1
  %17 = alloca i8, align 1
  %18 = alloca i8, align 1
  store ptr %0, ptr %10, align 8, !tbaa !263
  store ptr %1, ptr %11, align 8, !tbaa !66
  store i64 %2, ptr %12, align 8, !tbaa !71
  %19 = zext i1 %3 to i8
  store i8 %19, ptr %13, align 1, !tbaa !29
  store i32 %4, ptr %14, align 4, !tbaa !28
  %20 = zext i1 %5 to i8
  store i8 %20, ptr %15, align 1, !tbaa !29
  %21 = zext i1 %6 to i8
  store i8 %21, ptr %16, align 1, !tbaa !29
  %22 = zext i1 %7 to i8
  store i8 %22, ptr %17, align 1, !tbaa !29
  store i8 %8, ptr %18, align 1, !tbaa !30
  %23 = load ptr, ptr %10, align 8
  %24 = load ptr, ptr %11, align 8, !tbaa !66
  %25 = load i64, ptr %12, align 8, !tbaa !71
  %26 = load i8, ptr %13, align 1, !tbaa !29, !range !23, !noundef !24
  %27 = trunc i8 %26 to i1
  call void @_ZN3net8QuicDataC2EPKcmb(ptr noundef nonnull align 8 dereferenceable(25) %23, ptr noundef %24, i64 noundef %25, i1 noundef zeroext %27)
  store ptr getelementptr inbounds inrange(-16, 16) ({ [4 x ptr] }, ptr @_ZTVN3net10QuicPacketE, i32 0, i32 0, i32 2), ptr %23, align 8, !tbaa !69
  %28 = getelementptr inbounds nuw %"class.net::QuicPacket", ptr %23, i32 0, i32 1
  %29 = load ptr, ptr %11, align 8, !tbaa !66
  store ptr %29, ptr %28, align 8, !tbaa !265
  %30 = getelementptr inbounds nuw %"class.net::QuicPacket", ptr %23, i32 0, i32 2
  %31 = load i32, ptr %14, align 4, !tbaa !28
  store i32 %31, ptr %30, align 8, !tbaa !267
  %32 = getelementptr inbounds nuw %"class.net::QuicPacket", ptr %23, i32 0, i32 3
  %33 = load i8, ptr %15, align 1, !tbaa !29, !range !23, !noundef !24
  %34 = trunc i8 %33 to i1
  %35 = zext i1 %34 to i8
  store i8 %35, ptr %32, align 4, !tbaa !268
  %36 = getelementptr inbounds nuw %"class.net::QuicPacket", ptr %23, i32 0, i32 4
  %37 = load i8, ptr %16, align 1, !tbaa !29, !range !23, !noundef !24
  %38 = trunc i8 %37 to i1
  %39 = zext i1 %38 to i8
  store i8 %39, ptr %36, align 1, !tbaa !269
  %40 = getelementptr inbounds nuw %"class.net::QuicPacket", ptr %23, i32 0, i32 5
  %41 = load i8, ptr %17, align 1, !tbaa !29, !range !23, !noundef !24
  %42 = trunc i8 %41 to i1
  %43 = zext i1 %42 to i8
  store i8 %43, ptr %40, align 2, !tbaa !270
  %44 = getelementptr inbounds nuw %"class.net::QuicPacket", ptr %23, i32 0, i32 6
  %45 = load i8, ptr %18, align 1, !tbaa !30
  store i8 %45, ptr %44, align 1, !tbaa !271
  ret void
}