; Function Attrs: mustprogress nofree norecurse nosync nounwind willreturn memory(argmem: write) uwtable
define void @_ZN3net10QuicPacketC2EPcmbNS_22QuicConnectionIdLengthEbbbNS_22QuicPacketNumberLengthE(ptr noundef nonnull writeonly align 8 captures(none) dereferenceable(48) initializes((0, 25), (32, 48)) %0, ptr noundef %1, i64 noundef %2, i1 noundef zeroext %3, i32 noundef %4, i1 noundef zeroext %5, i1 noundef zeroext %6, i1 noundef zeroext %7, i8 noundef signext %8) unnamed_addr #2 align 2 {
  %10 = zext i1 %5 to i8
  %11 = zext i1 %6 to i8
  %12 = zext i1 %7 to i8
  %13 = zext i1 %3 to i8
  %14 = getelementptr inbounds nuw i8, ptr %0, i64 8
  store ptr %1, ptr %14, align 8, !tbaa !204
  %15 = getelementptr inbounds nuw i8, ptr %0, i64 16
  store i64 %2, ptr %15, align 8, !tbaa !206
  %16 = getelementptr inbounds nuw i8, ptr %0, i64 24
  store i8 %13, ptr %16, align 8, !tbaa !207
  store ptr getelementptr inbounds nuw inrange(-16, 16) (i8, ptr @_ZTVN3net10QuicPacketE, i64 16), ptr %0, align 8, !tbaa !39
  %17 = getelementptr inbounds nuw i8, ptr %0, i64 32
  store ptr %1, ptr %17, align 8, !tbaa !208
  %18 = getelementptr inbounds nuw i8, ptr %0, i64 40
  store i32 %4, ptr %18, align 8, !tbaa !210
  %19 = getelementptr inbounds nuw i8, ptr %0, i64 44
  store i8 %10, ptr %19, align 4, !tbaa !211
  %20 = getelementptr inbounds nuw i8, ptr %0, i64 45
  store i8 %11, ptr %20, align 1, !tbaa !212
  %21 = getelementptr inbounds nuw i8, ptr %0, i64 46
  store i8 %12, ptr %21, align 2, !tbaa !213
  %22 = getelementptr inbounds nuw i8, ptr %0, i64 47
  store i8 %8, ptr %22, align 1, !tbaa !214
  ret void
}